target datalayout = "e-m:e-p270:32:32-p271:32:32-p272:64:64-i64:64-i128:128-f80:128-n8:16:32:64-S128"
target triple = "x86_64-pc-linux-gnu"

%struct.ident_t = type { i32, i32, i32, i32, ptr }

@3 = private unnamed_addr constant %struct.ident_t { i32 0, i32 2, i32 0, i32 22, ptr @0 }, align 8

; Function Attrs: mustprogress nounwind uwtable
define void @_ZN5faiss14ZnSphereSearch12search_multiEiPKfPfS3_(ptr noundef nonnull align 8 dereferenceable(40) %0, i32 noundef %1, ptr noundef %2, ptr noundef %3, ptr noundef %4) #4 align 2 {
  %6 = alloca ptr, align 8
  %7 = alloca i32, align 4
  %8 = alloca ptr, align 8
  %9 = alloca ptr, align 8
  %10 = alloca ptr, align 8
  %11 = alloca i32, align 4
  %12 = alloca i32, align 4
  %13 = call i32 @__kmpc_global_thread_num(ptr @3)
  store ptr %0, ptr %6, align 8, !tbaa !217
  store i32 %1, ptr %7, align 4, !tbaa !13
  store ptr %2, ptr %8, align 8, !tbaa !9
  store ptr %3, ptr %9, align 8, !tbaa !9
  store ptr %4, ptr %10, align 8, !tbaa !9
  %14 = load ptr, ptr %6, align 8
  %15 = load i32, ptr %7, align 4, !tbaa !13
  %16 = icmp sgt i32 %15, 1000
  br i1 %16, label %17, label %18

17:                                               ; preds = %5
  call void (ptr, i32, ptr, ...) @__kmpc_fork_call(ptr @3, i32 5, ptr @_ZN5faiss14ZnSphereSearch12search_multiEiPKfPfS3_.omp_outlined, ptr %7, ptr %10, ptr %14, ptr %8, ptr %9)
  br label %19

18:                                               ; preds = %5
  call void @__kmpc_serialized_parallel(ptr @3, i32 %13)
  store i32 %13, ptr %11, align 4, !tbaa !13
  store i32 0, ptr %12, align 4
  call void @_ZN5faiss14ZnSphereSearch12search_multiEiPKfPfS3_.omp_outlined(ptr %11, ptr %12, ptr %7, ptr %10, ptr %14, ptr %8, ptr %9) #3
  call void @__kmpc_end_serialized_parallel(ptr @3, i32 %13)
  br label %19

19:                                               ; preds = %18, %17
  ret void
}