; Function Attrs: mustprogress nounwind uwtable
define void @_ZN5faiss14ZnSphereSearch12search_multiEiPKfPfS3_(ptr noundef nonnull align 8 dereferenceable(40) %0, i32 noundef %1, ptr noundef %2, ptr noundef %3, ptr noundef %4) local_unnamed_addr #13 align 2 {
  %6 = alloca i32, align 4
  %7 = alloca ptr, align 8
  %8 = alloca ptr, align 8
  %9 = alloca ptr, align 8
  %10 = alloca i32, align 4
  %11 = tail call i32 @__kmpc_global_thread_num(ptr nonnull @3)
  store i32 %1, ptr %6, align 4, !tbaa !45
  store ptr %2, ptr %7, align 8, !tbaa !98
  store ptr %3, ptr %8, align 8, !tbaa !98
  store ptr %4, ptr %9, align 8, !tbaa !98
  %12 = icmp sgt i32 %1, 1000
  br i1 %12, label %13, label %14

13:                                               ; preds = %5
  call void (ptr, i32, ptr, ...) @__kmpc_fork_call(ptr nonnull @3, i32 5, ptr nonnull @_ZN5faiss14ZnSphereSearch12search_multiEiPKfPfS3_.omp_outlined, ptr nonnull %6, ptr nonnull %9, ptr nonnull %0, ptr nonnull %7, ptr nonnull %8)
  br label %15

14:                                               ; preds = %5
  tail call void @__kmpc_serialized_parallel(ptr nonnull @3, i32 %11)
  store i32 %11, ptr %10, align 4, !tbaa !45
  call void @_ZN5faiss14ZnSphereSearch12search_multiEiPKfPfS3_.omp_outlined(ptr nonnull %10, ptr nonnull poison, ptr %6, ptr %9, ptr nonnull %0, ptr %7, ptr %8) #15
  tail call void @__kmpc_end_serialized_parallel(ptr nonnull @3, i32 %11)
  br label %15

15:                                               ; preds = %14, %13
  ret void
}